(dp0
(S'Houston, TX'
p1
tp2
((F30.0727574
F-95.875509100000002
tp3
(F30.0727574
F-94.851033900000004
tp4
(F29.452850999999999
F-94.851033900000004
tp5
(F29.452850999999999
F-95.875509100000002
tp6
tp7
s(S'S Loop Fwy'
p8
tp9
((F29.714351199999999
F-95.4590709
tp10
(F29.714351199999999
F-95.266029799999998
tp11
(F29.677372099999999
F-95.266029799999998
tp12
(F29.677372099999999
F-95.4590709
tp13
tp14
s(S'Los angeles, CA'
p15
tp16
((F34.3475477
F-118.7559225
tp17
(F34.3475477
F-117.7314473
tp18
(F33.755888400000003
F-117.7314473
tp19
(F33.755888400000003
F-118.7559225
tp20
tp21
s(S'Houston'
p22
tp23
((F30.0727574
F-95.875509100000002
tp24
(F30.0727574
F-94.851033900000004
tp25
(F29.452850999999999
F-94.851033900000004
tp26
(F29.452850999999999
F-95.875509100000002
tp27
tp28
s(S'Tulsa, OK'
p29
tp30
((F36.2979986
F-96.248893800000005
tp31
(F36.2979986
F-95.736656199999999
tp32
(F36.009699699999999
F-95.736656199999999
tp33
(F36.009699699999999
F-96.248893800000005
tp34
tp35
s.